(dp0
S'0.27'
p1
((I59
I7
I0
I51
tp2
tp3
sS'0.1'
p4
((I13264
I10605
I2472
I2437
tp5
tp6
sS'0.0'
p7
((I14158
I12545
I2906
I2566
tp8
tp9
sS'0.2'
p10
((I931
I276
I78
I329
tp11
tp12
sS'0.07'
p13
((I13858
I11933
I2808
I2514
tp14
tp15
sS'0.04'
p16
((I14014
I12200
I2904
I2566
tp17
tp18
sS'0.05'
p19
((I13885
I12144
I2858
I2521
tp20
tp21
sS'0.08'
p22
((I13828
I11787
I2726
I2502
tp23
tp24
sS'0.09'
p25
((I13704
I11472
I2675
I2490
tp26
tp27
sS'0.28'
p28
((I45
I6
I0
I44
tp29
tp30
sS'0.29'
p31
((I45
I6
I0
I44
tp32
tp33
sS'0.02'
p34
((I14041
I12292
I2906
I2566
tp35
tp36
sS'0.03'
p37
((I14041
I12249
I2905
I2566
tp38
tp39
sS'0.26'
p40
((I76
I11
I9
I77
tp41
tp42
sS'0.01'
p43
((I14041
I12292
I2906
I2566
tp44
tp45
sS'0.06'
p46
((I13881
I11978
I2830
I2517
tp47
tp48
sS'0.21'
p49
((I562
I135
I45
I245
tp50
tp51
sS'0.22'
p52
((I467
I107
I41
I224
tp53
tp54
sS'0.23'
p55
((I433
I85
I40
I206
tp56
tp57
sS'0.15'
p58
((I6019
I4225
I922
I1490
tp59
tp60
sS'0.14'
p61
((I8521
I5718
I1214
I1807
tp62
tp63
sS'0.17'
p64
((I3421
I1925
I452
I951
tp65
tp66
sS'0.16'
p67
((I4903
I3066
I701
I1244
tp68
tp69
sS'0.11'
p70
((I12946
I9774
I2299
I2388
tp71
tp72
sS'0.13'
p73
((I10845
I7691
I1651
I2126
tp74
tp75
sS'0.12'
p76
((I12052
I8814
I2061
I2287
tp77
tp78
sS'0.19'
p79
((I1423
I486
I125
I432
tp80
tp81
sS'0.18'
p82
((I1956
I1037
I265
I612
tp83
tp84
sS'0.24'
p85
((I233
I22
I22
I128
tp86
tp87
sS'0.25'
p88
((I88
I16
I16
I90
tp89
tp90
s.