(dp0
S'0.27'
p1
(I59
I7
I0
I51
tp2
sS'0.1'
p3
(I13264
I10605
I2472
I2437
tp4
sS'0.0'
p5
(I14158
I12545
I2906
I2566
tp6
sS'0.2'
p7
(I931
I276
I78
I329
tp8
sS'0.07'
p9
(I13858
I11933
I2808
I2514
tp10
sS'0.22'
p11
(I467
I107
I41
I224
tp12
sS'0.23'
p13
(I433
I85
I40
I206
tp14
sS'0.08'
p15
(I13828
I11787
I2726
I2502
tp16
sS'0.09'
p17
(I13704
I11472
I2675
I2490
tp18
sS'0.28'
p19
(I45
I6
I0
I44
tp20
sS'0.29'
p21
(I45
I6
I0
I44
tp22
sS'0.02'
p23
(I14041
I12292
I2906
I2566
tp24
sS'0.03'
p25
(I14041
I12249
I2905
I2566
tp26
sS'0.26'
p27
(I76
I11
I9
I77
tp28
sS'0.01'
p29
(I14041
I12292
I2906
I2566
tp30
sS'0.06'
p31
(I13881
I11978
I2830
I2517
tp32
sS'0.21'
p33
(I562
I135
I45
I245
tp34
sS'0.04'
p35
(I14014
I12200
I2904
I2566
tp36
sS'0.05'
p37
(I13885
I12144
I2858
I2521
tp38
sS'0.15'
p39
(I6019
I4225
I922
I1490
tp40
sS'0.14'
p41
(I8521
I5718
I1214
I1807
tp42
sS'0.17'
p43
(I3421
I1925
I452
I951
tp44
sS'0.16'
p45
(I4903
I3066
I701
I1244
tp46
sS'0.11'
p47
(I12946
I9774
I2299
I2388
tp48
sS'0.13'
p49
(I10845
I7691
I1651
I2126
tp50
sS'0.12'
p51
(I12052
I8814
I2061
I2287
tp52
sS'0.19'
p53
(I1423
I486
I125
I432
tp54
sS'0.18'
p55
(I1956
I1037
I265
I612
tp56
sS'0.24'
p57
(I233
I22
I22
I128
tp58
sS'0.25'
p59
(I88
I16
I16
I90
tp60
s.