(dp0
S'0.27'
p1
((I59
I7
I0
I51
tp2
tp3
sS'0.1'
p4
((I13787
I12054
I3053
I2782
tp5
tp6
sS'0.0'
p7
((I14968
I14841
I3777
I2953
tp8
tp9
sS'0.2'
p10
((I971
I315
I83
I359
tp11
tp12
sS'0.07'
p13
((I14604
I13912
I3563
I2892
tp14
tp15
sS'0.04'
p16
((I14824
I14356
I3775
I2953
tp17
tp18
sS'0.05'
p19
((I14663
I14158
I3692
I2906
tp20
tp21
sS'0.08'
p22
((I14553
I13692
I3433
I2873
tp23
tp24
sS'0.09'
p25
((I14389
I13269
I3340
I2853
tp26
tp27
sS'0.28'
p28
((I45
I6
I0
I44
tp29
tp30
sS'0.29'
p31
((I45
I6
I0
I44
tp32
tp33
sS'0.02'
p34
((I14851
I14448
I3777
I2953
tp35
tp36
sS'0.03'
p37
((I14851
I14405
I3776
I2953
tp38
tp39
sS'0.26'
p40
((I76
I11
I9
I77
tp41
tp42
sS'0.01'
p43
((I14851
I14448
I3777
I2953
tp44
tp45
sS'0.06'
p46
((I14659
I13992
I3664
I2902
tp47
tp48
sS'0.21'
p49
((I588
I165
I46
I270
tp50
tp51
sS'0.22'
p52
((I488
I120
I42
I239
tp53
tp54
sS'0.23'
p55
((I445
I94
I41
I218
tp56
tp57
sS'0.15'
p58
((I6322
I4755
I1066
I1677
tp59
tp60
sS'0.14'
p61
((I8925
I6483
I1441
I2043
tp62
tp63
sS'0.17'
p64
((I3603
I2134
I497
I1051
tp65
tp66
sS'0.16'
p67
((I5126
I3389
I793
I1381
tp68
tp69
sS'0.11'
p70
((I13459
I11065
I2780
I2711
tp71
tp72
sS'0.13'
p73
((I11309
I8733
I1986
I2412
tp74
tp75
sS'0.12'
p76
((I12540
I9975
I2432
I2587
tp77
tp78
sS'0.19'
p79
((I1507
I572
I140
I481
tp80
tp81
sS'0.18'
p82
((I2100
I1177
I283
I679
tp83
tp84
sS'0.24'
p85
((I242
I24
I22
I132
tp86
tp87
sS'0.25'
p88
((I97
I18
I16
I94
tp89
tp90
s.