(dp0
S'0.27'
p1
I117
sS'0.1'
p2
I28778
sS'0.0'
p3
I32175
sS'0.2'
p4
I1614
sS'0.07'
p5
I31113
sS'0.04'
p6
I31684
sS'0.05'
p7
I31408
sS'0.08'
p8
I30843
sS'0.09'
p9
I30341
sS'0.28'
p10
I95
sS'0.29'
p11
I95
sS'0.02'
p12
I31805
sS'0.03'
p13
I31761
sS'0.26'
p14
I173
sS'0.01'
p15
I31805
sS'0.06'
p16
I31206
sS'0.21'
p17
I987
sS'0.22'
p18
I839
sS'0.23'
p19
I764
sS'0.15'
p20
I12656
sS'0.14'
p21
I17260
sS'0.17'
p22
I6749
sS'0.16'
p23
I9914
sS'0.11'
p24
I27407
sS'0.13'
p25
I22313
sS'0.12'
p26
I25214
sS'0.19'
p27
I2466
sS'0.18'
p28
I3870
sS'0.24'
p29
I405
sS'0.25'
p30
I210
s.