(dp0
S'0.27'
p1
(I101
I8
I1
I80
tp2
sS'0.1'
p3
(I14672
I15050
I4512
I3743
tp4
sS'0.0'
p5
(I16795
I21543
I8743
I4670
tp6
sS'0.2'
p7
(I1265
I472
I143
I529
tp8
sS'0.07'
p9
(I16045
I18369
I6637
I4261
tp10
sS'0.22'
p11
(I635
I166
I59
I339
tp12
sS'0.23'
p13
(I568
I128
I56
I307
tp14
sS'0.08'
p15
(I15912
I17917
I6161
I4189
tp16
sS'0.09'
p17
(I15625
I17059
I5666
I4109
tp18
sS'0.28'
p19
(I62
I6
I0
I60
tp20
sS'0.29'
p21
(I52
I6
I0
I52
tp22
sS'0.02'
p23
(I16388
I19476
I7159
I4357
tp24
sS'0.03'
p25
(I16388
I19433
I7158
I4357
tp26
sS'0.26'
p27
(I124
I14
I11
I111
tp28
sS'0.01'
p29
(I16388
I19476
I7159
I4357
tp30
sS'0.06'
p31
(I16139
I18785
I6928
I4288
tp32
sS'0.21'
p33
(I798
I269
I80
I407
tp34
sS'0.04'
p35
(I16361
I19384
I7157
I4357
tp36
sS'0.05'
p37
(I16200
I19186
I7074
I4310
tp38
sS'0.15'
p39
(I7030
I6003
I1458
I2312
tp40
sS'0.14'
p41
(I9705
I8169
I2084
I2789
tp42
sS'0.17'
p43
(I4161
I2840
I689
I1497
tp44
sS'0.16'
p45
(I5789
I4468
I1110
I1963
tp46
sS'0.11'
p47
(I14333
I13818
I4010
I3657
tp48
sS'0.13'
p49
(I12138
I10735
I2777
I3226
tp50
sS'0.12'
p51
(I13397
I12476
I3446
I3477
tp52
sS'0.19'
p53
(I1888
I889
I232
I747
tp54
sS'0.18'
p55
(I2548
I1672
I408
I1041
tp56
sS'0.24'
p57
(I345
I41
I34
I206
tp58
sS'0.25'
p59
(I181
I27
I24
I154
tp60
s.