(dp0
S'0.27'
p1
((I96
I8
I1
I75
tp2
tp3
sS'0.1'
p4
((I14654
I14938
I4425
I3700
tp5
tp6
sS'0.0'
p7
((I16608
I20855
I7722
I4253
tp8
tp9
sS'0.2'
p10
((I1260
I472
I143
I524
tp11
tp12
sS'0.07'
p13
((I16003
I18233
I6477
I4145
tp14
tp15
sS'0.04'
p16
((I16319
I19248
I6997
I4241
tp17
tp18
sS'0.05'
p19
((I16158
I19050
I6914
I4194
tp20
tp21
sS'0.08'
p22
((I15870
I17781
I6001
I4073
tp23
tp24
sS'0.09'
p25
((I15583
I16923
I5506
I3993
tp26
tp27
sS'0.28'
p28
((I57
I6
I0
I55
tp29
tp30
sS'0.29'
p31
((I47
I6
I0
I47
tp32
tp33
sS'0.02'
p34
((I16346
I19340
I6999
I4241
tp35
tp36
sS'0.03'
p37
((I16346
I19297
I6998
I4241
tp38
tp39
sS'0.26'
p40
((I119
I14
I11
I106
tp41
tp42
sS'0.01'
p43
((I16346
I19340
I6999
I4241
tp44
tp45
sS'0.06'
p46
((I16097
I18649
I6768
I4172
tp47
tp48
sS'0.21'
p49
((I793
I269
I80
I402
tp50
tp51
sS'0.22'
p52
((I630
I166
I59
I334
tp53
tp54
sS'0.23'
p55
((I563
I128
I56
I302
tp56
tp57
sS'0.15'
p58
((I7012
I5965
I1445
I2269
tp59
tp60
sS'0.14'
p61
((I9687
I8131
I2071
I2746
tp62
tp63
sS'0.17'
p64
((I4143
I2802
I676
I1454
tp65
tp66
sS'0.16'
p67
((I5771
I4430
I1097
I1920
tp68
tp69
sS'0.11'
p70
((I14315
I13780
I3997
I3614
tp71
tp72
sS'0.13'
p73
((I12120
I10697
I2764
I3183
tp74
tp75
sS'0.12'
p76
((I13379
I12438
I3433
I3434
tp77
tp78
sS'0.19'
p79
((I1870
I851
I219
I704
tp80
tp81
sS'0.18'
p82
((I2530
I1634
I395
I998
tp83
tp84
sS'0.24'
p85
((I340
I41
I34
I201
tp86
tp87
sS'0.25'
p88
((I176
I27
I24
I149
tp89
tp90
s.