(dp0
S'0.27'
p1
I0
sS'0.1'
p2
I7874
sS'0.0'
p3
I8012
sS'0.2'
p4
I563
sS'0.07'
p5
I8012
sS'0.04'
p6
I8012
sS'0.05'
p7
I8012
sS'0.08'
p8
I8012
sS'0.09'
p9
I8012
sS'0.28'
p10
I0
sS'0.29'
p11
I0
sS'0.02'
p12
I8012
sS'0.03'
p13
I8012
sS'0.26'
p14
I0
sS'0.01'
p15
I8012
sS'0.06'
p16
I8012
sS'0.21'
p17
I317
sS'0.22'
p18
I317
sS'0.23'
p19
I317
sS'0.15'
p20
I3174
sS'0.14'
p21
I5291
sS'0.17'
p22
I1615
sS'0.16'
p23
I2729
sS'0.11'
p24
I7874
sS'0.13'
p25
I6935
sS'0.12'
p26
I7485
sS'0.19'
p27
I871
sS'0.18'
p28
I1104
sS'0.24'
p29
I100
sS'0.25'
p30
I0
s.