(dp0
S'0.27'
p1
F145.0
sS'0.1'
p2
F34624.0
sS'0.0'
p3
F41376.0
sS'0.2'
p4
F2010.0
sS'0.07'
p5
F39094.0
sS'0.04'
p6
F40479.0
sS'0.05'
p7
F39990.0
sS'0.08'
p8
F38372.0
sS'0.09'
p9
F37416.0
sS'0.28'
p10
F95.0
sS'0.29'
p11
F95.0
sS'0.02'
p12
F40600.0
sS'0.03'
p13
F40556.0
sS'0.26'
p14
F201.0
sS'0.01'
p15
F40600.0
sS'0.06'
p16
F39360.0
sS'0.21'
p17
F1223.0
sS'0.22'
p18
F972.0
sS'0.23'
p19
F858.0
sS'0.15'
p20
F14984.0
sS'0.14'
p21
F20506.0
sS'0.17'
p22
F8026.0
sS'0.16'
p23
F11700.0
sS'0.11'
p24
F32776.0
sS'0.13'
p25
F26196.0
sS'0.12'
p26
F29952.0
sS'0.19'
p27
F3091.0
sS'0.18'
p28
F4749.0
sS'0.24'
p29
F459.0
sS'0.25'
p30
F264.0
s.