(dp0
S'0.27'
p1
I145
sS'0.1'
p2
I34624
sS'0.0'
p3
I41376
sS'0.2'
p4
I2010
sS'0.07'
p5
I39094
sS'0.22'
p6
I972
sS'0.23'
p7
I858
sS'0.08'
p8
I38372
sS'0.09'
p9
I37416
sS'0.28'
p10
I95
sS'0.29'
p11
I95
sS'0.02'
p12
I40600
sS'0.03'
p13
I40556
sS'0.26'
p14
I201
sS'0.01'
p15
I40600
sS'0.06'
p16
I39360
sS'0.21'
p17
I1223
sS'0.04'
p18
I40479
sS'0.05'
p19
I39990
sS'0.15'
p20
I14984
sS'0.14'
p21
I20506
sS'0.17'
p22
I8026
sS'0.16'
p23
I11700
sS'0.11'
p24
I32776
sS'0.13'
p25
I26196
sS'0.12'
p26
I29952
sS'0.19'
p27
I3091
sS'0.18'
p28
I4749
sS'0.24'
p29
I459
sS'0.25'
p30
I264
s.