(dp0
S'0.27'
p1
((I0
I0
I0
I0
tp2
tp3
sS'0.1'
p4
((I5663
I1424
I251
I536
tp5
tp6
sS'0.0'
p7
((I5666
I1548
I256
I542
tp8
tp9
sS'0.2'
p10
((I383
I70
I22
I88
tp11
tp12
sS'0.07'
p13
((I5666
I1548
I256
I542
tp14
tp15
sS'0.04'
p16
((I5666
I1548
I256
I542
tp17
tp18
sS'0.05'
p19
((I5666
I1548
I256
I542
tp20
tp21
sS'0.08'
p22
((I5666
I1548
I256
I542
tp23
tp24
sS'0.09'
p25
((I5666
I1548
I256
I542
tp26
tp27
sS'0.28'
p28
((I0
I0
I0
I0
tp29
tp30
sS'0.29'
p31
((I0
I0
I0
I0
tp32
tp33
sS'0.02'
p34
((I5666
I1548
I256
I542
tp35
tp36
sS'0.03'
p37
((I5666
I1548
I256
I542
tp38
tp39
sS'0.26'
p40
((I0
I0
I0
I0
tp41
tp42
sS'0.01'
p43
((I5666
I1548
I256
I542
tp44
tp45
sS'0.06'
p46
((I5666
I1548
I256
I542
tp47
tp48
sS'0.21'
p49
((I219
I27
I14
I57
tp50
tp51
sS'0.22'
p52
((I219
I27
I14
I57
tp53
tp54
sS'0.23'
p55
((I219
I27
I14
I57
tp56
tp57
sS'0.15'
p58
((I2215
I559
I103
I297
tp59
tp60
sS'0.14'
p61
((I3825
I896
I145
I425
tp62
tp63
sS'0.17'
p64
((I1162
I210
I54
I189
tp65
tp66
sS'0.16'
p67
((I1946
I412
I100
I271
tp68
tp69
sS'0.11'
p70
((I5663
I1424
I251
I536
tp71
tp72
sS'0.13'
p73
((I4962
I1232
I235
I506
tp74
tp75
sS'0.12'
p76
((I5318
I1392
I251
I524
tp77
tp78
sS'0.19'
p79
((I561
I158
I27
I125
tp80
tp81
sS'0.18'
p82
((I713
I198
I50
I143
tp83
tp84
sS'0.24'
p85
((I72
I4
I5
I19
tp86
tp87
sS'0.25'
p88
((I0
I0
I0
I0
tp89
tp90
s.