(dp0
S'0.27'
p1
I174
sS'0.1'
p2
I37072
sS'0.0'
p3
I46989
sS'0.2'
p4
I2277
sS'0.07'
p5
I43241
sS'0.22'
p6
I1095
sS'0.23'
p7
I963
sS'0.08'
p8
I42108
sS'0.09'
p9
I40776
sS'0.28'
p10
I112
sS'0.29'
p11
I100
sS'0.02'
p12
I45309
sS'0.03'
p13
I45265
sS'0.26'
p14
I244
sS'0.01'
p15
I45309
sS'0.06'
p16
I44069
sS'0.21'
p17
I1422
sS'0.04'
p18
I45188
sS'0.05'
p19
I44699
sS'0.15'
p20
I16210
sS'0.14'
p21
I22054
sS'0.17'
p22
I8777
sS'0.16'
p23
I12737
sS'0.11'
p24
I35125
sS'0.13'
p25
I28183
sS'0.12'
p26
I32103
sS'0.19'
p27
I3506
sS'0.18'
p28
I5311
sS'0.24'
p29
I530
sS'0.25'
p30
I326
s.