(dp0
S'0.27'
p1
(I45
I6
I0
I44
tp2
sS'0.1'
p3
(I9545
I4870
I795
I1303
tp4
sS'0.0'
p5
(I9816
I5360
I805
I1320
tp6
sS'0.2'
p7
(I697
I175
I44
I231
tp8
sS'0.07'
p9
(I9746
I5237
I802
I1319
tp10
sS'0.04'
p11
(I9816
I5360
I805
I1320
tp12
sS'0.05'
p13
(I9750
I5360
I804
I1320
tp14
sS'0.08'
p15
(I9746
I5185
I802
I1317
tp16
sS'0.09'
p17
(I9691
I5125
I801
I1316
tp18
sS'0.28'
p19
(I45
I6
I0
I44
tp20
sS'0.29'
p21
(I45
I6
I0
I44
tp22
sS'0.02'
p23
(I9816
I5360
I805
I1320
tp24
sS'0.03'
p25
(I9816
I5360
I805
I1320
tp26
sS'0.26'
p27
(I62
I10
I9
I70
tp28
sS'0.01'
p29
(I9816
I5360
I805
I1320
tp30
sS'0.06'
p31
(I9746
I5237
I802
I1319
tp32
sS'0.21'
p33
(I453
I84
I25
I177
tp34
sS'0.22'
p35
(I395
I65
I24
I164
tp36
sS'0.23'
p37
(I395
I65
I24
I164
tp38
sS'0.15'
p39
(I4239
I2166
I389
I843
tp40
sS'0.14'
p41
(I6376
I2997
I478
I1042
tp42
sS'0.17'
p43
(I2331
I1010
I241
I580
tp44
sS'0.16'
p45
(I3457
I1559
I335
I735
tp46
sS'0.11'
p47
(I9427
I4753
I788
I1295
tp48
sS'0.13'
p49
(I8142
I3892
I615
I1193
tp50
sS'0.12'
p51
(I8869
I4379
I738
I1250
tp52
sS'0.19'
p53
(I1001
I299
I59
I291
tp54
sS'0.18'
p55
(I1284
I526
I142
I367
tp56
sS'0.24'
p57
(I207
I16
I15
I108
tp58
sS'0.25'
p59
(I62
I10
I9
I70
tp60
s.