(dp0
S'0.27'
p1
(I79
I7
I0
I59
tp2
sS'0.1'
p3
(I14254
I13530
I3716
I3124
tp4
sS'0.0'
p5
(I15756
I17218
I5025
I3377
tp6
sS'0.2'
p7
(I1095
I389
I109
I417
tp8
sS'0.07'
p9
(I15310
I15847
I4639
I3298
tp10
sS'0.22'
p11
(I533
I131
I46
I262
tp12
sS'0.23'
p13
(I475
I101
I45
I237
tp14
sS'0.08'
p15
(I15202
I15526
I4382
I3262
tp16
sS'0.09'
p17
(I14998
I14999
I4192
I3227
tp18
sS'0.28'
p19
(I45
I6
I0
I44
tp20
sS'0.29'
p21
(I45
I6
I0
I44
tp22
sS'0.02'
p23
(I15614
I16628
I4981
I3377
tp24
sS'0.03'
p25
(I15614
I16585
I4980
I3377
tp26
sS'0.26'
p27
(I96
I11
I9
I85
tp28
sS'0.01'
p29
(I15614
I16628
I4981
I3377
tp30
sS'0.06'
p31
(I15365
I15937
I4750
I3308
tp32
sS'0.21'
p33
(I658
I203
I55
I307
tp34
sS'0.04'
p35
(I15587
I16536
I4979
I3377
tp36
sS'0.05'
p37
(I15426
I16338
I4896
I3330
tp38
sS'0.15'
p39
(I6698
I5227
I1199
I1860
tp40
sS'0.14'
p41
(I9339
I7195
I1699
I2273
tp42
sS'0.17'
p43
(I3880
I2381
I583
I1182
tp44
sS'0.16'
p45
(I5466
I3778
I906
I1550
tp46
sS'0.11'
p47
(I13920
I12454
I3361
I3041
tp48
sS'0.13'
p49
(I11734
I9526
I2279
I2657
tp50
sS'0.12'
p51
(I12991
I11171
I2904
I2886
tp52
sS'0.19'
p53
(I1660
I695
I179
I557
tp54
sS'0.18'
p55
(I2297
I1347
I330
I775
tp56
sS'0.24'
p57
(I265
I25
I24
I145
tp58
sS'0.25'
p59
(I120
I19
I18
I107
tp60
s.