(dp0
S'0.27'
p1
((((I79
I7
I0
I59
tp2
tp3
tp4
tp5
sS'0.1'
p6
((((I14254
I13530
I3716
I3124
tp7
tp8
tp9
tp10
sS'0.0'
p11
((((I15756
I17218
I5025
I3377
tp12
tp13
tp14
tp15
sS'0.2'
p16
((((I1095
I389
I109
I417
tp17
tp18
tp19
tp20
sS'0.07'
p21
((((I15310
I15847
I4639
I3298
tp22
tp23
tp24
tp25
sS'0.04'
p26
((((I15587
I16536
I4979
I3377
tp27
tp28
tp29
tp30
sS'0.05'
p31
((((I15426
I16338
I4896
I3330
tp32
tp33
tp34
tp35
sS'0.08'
p36
((((I15202
I15526
I4382
I3262
tp37
tp38
tp39
tp40
sS'0.09'
p41
((((I14998
I14999
I4192
I3227
tp42
tp43
tp44
tp45
sS'0.28'
p46
((((I45
I6
I0
I44
tp47
tp48
tp49
tp50
sS'0.29'
p51
((((I45
I6
I0
I44
tp52
tp53
tp54
tp55
sS'0.02'
p56
((((I15614
I16628
I4981
I3377
tp57
tp58
tp59
tp60
sS'0.03'
p61
((((I15614
I16585
I4980
I3377
tp62
tp63
tp64
tp65
sS'0.26'
p66
((((I96
I11
I9
I85
tp67
tp68
tp69
tp70
sS'0.01'
p71
((((I15614
I16628
I4981
I3377
tp72
tp73
tp74
tp75
sS'0.06'
p76
((((I15365
I15937
I4750
I3308
tp77
tp78
tp79
tp80
sS'0.21'
p81
((((I658
I203
I55
I307
tp82
tp83
tp84
tp85
sS'0.22'
p86
((((I533
I131
I46
I262
tp87
tp88
tp89
tp90
sS'0.23'
p91
((((I475
I101
I45
I237
tp92
tp93
tp94
tp95
sS'0.15'
p96
((((I6698
I5227
I1199
I1860
tp97
tp98
tp99
tp100
sS'0.14'
p101
((((I9339
I7195
I1699
I2273
tp102
tp103
tp104
tp105
sS'0.17'
p106
((((I3880
I2381
I583
I1182
tp107
tp108
tp109
tp110
sS'0.16'
p111
((((I5466
I3778
I906
I1550
tp112
tp113
tp114
tp115
sS'0.11'
p116
((((I13920
I12454
I3361
I3041
tp117
tp118
tp119
tp120
sS'0.13'
p121
((((I11734
I9526
I2279
I2657
tp122
tp123
tp124
tp125
sS'0.12'
p126
((((I12991
I11171
I2904
I2886
tp127
tp128
tp129
tp130
sS'0.19'
p131
((((I1660
I695
I179
I557
tp132
tp133
tp134
tp135
sS'0.18'
p136
((((I2297
I1347
I330
I775
tp137
tp138
tp139
tp140
sS'0.24'
p141
((((I265
I25
I24
I145
tp142
tp143
tp144
tp145
sS'0.25'
p146
((((I120
I19
I18
I107
tp147
tp148
tp149
tp150
s.