(dp0
F0.0
I41376
sF0.25
I264
sF0.10999999999999999
I32776
sF0.19000000000000003
I3091
sF0.25000000000000006
I264
sF0.040000000000000001
I40479
sF0.29000000000000009
I95
sF0.12999999999999998
I26196
sF0.029999999999999999
I40556
sF0.02
I40600
sF0.21000000000000005
I1223
sF0.089999999999999997
I37416
sF0.14999999999999999
I14984
sF0.29999999999999999
I0
sF0.050000000000000003
I39990
sF0.27000000000000007
I145
sF0.23000000000000007
I858
sF0.01
I40600
sF0.20000000000000001
I2010
sF0.10000000000000001
I34624
sF0.17000000000000001
I8026
sF0.070000000000000007
I39094
s.